; Function Attrs: mustprogress nounwind uwtable
define hidden void @_ZN19PredicateFailedStubC2EP12CodeEmitInfo(ptr nocapture noundef nonnull writeonly align 8 dereferenceable(96) %0, ptr noundef %1) unnamed_addr #0 align 2 {
  %3 = getelementptr inbounds i8, ptr %0, i64 8
  store i32 -1, ptr %3, align 8
  %4 = getelementptr inbounds i8, ptr %0, i64 28
  store i32 0, ptr %4, align 4
  %5 = getelementptr inbounds i8, ptr %0, i64 32
  store ptr null, ptr %5, align 8
  %6 = getelementptr inbounds i8, ptr %0, i64 40
  store i8 0, ptr %6, align 8
  %7 = getelementptr inbounds i8, ptr %0, i64 48
  store i32 -1, ptr %7, align 8
  %8 = getelementptr inbounds i8, ptr %0, i64 68
  store i32 0, ptr %8, align 4
  %9 = getelementptr inbounds i8, ptr %0, i64 72
  store ptr null, ptr %9, align 8
  %10 = getelementptr inbounds i8, ptr %0, i64 80
  store i8 0, ptr %10, align 8
  store ptr getelementptr inbounds inrange(-16, 48) (i8, ptr @_ZTV19PredicateFailedStub, i64 16), ptr %0, align 8
  %11 = tail call align 8 ptr @llvm.threadlocal.address.p0(ptr align 8 @_ZN6Thread12_thr_currentE)
  %12 = load ptr, ptr %11, align 8
  %13 = getelementptr inbounds i8, ptr %12, i64 1808
  %14 = load ptr, ptr %13, align 8
  %15 = getelementptr inbounds i8, ptr %14, i64 128
  %16 = load ptr, ptr %15, align 8
  %17 = load ptr, ptr %16, align 8
  %18 = getelementptr inbounds i8, ptr %17, i64 40
  %19 = load ptr, ptr %18, align 8
  %20 = getelementptr inbounds i8, ptr %17, i64 32
  %21 = load ptr, ptr %20, align 8
  %22 = ptrtoint ptr %19 to i64
  %23 = ptrtoint ptr %21 to i64
  %24 = sub i64 %22, %23
  %.not.i.i.i = icmp ult i64 %24, 48
  br i1 %.not.i.i.i, label %27, label %25

25:                                               ; preds = %2
  %26 = getelementptr inbounds i8, ptr %21, i64 48
  store ptr %26, ptr %20, align 8
  br label %_ZN22CompilationResourceObjnwEm.exit

27:                                               ; preds = %2
  %28 = tail call noundef ptr @_ZN5Arena4growEmN17AllocFailStrategy13AllocFailEnumE(ptr noundef nonnull align 8 dereferenceable(48) %17, i64 noundef 48, i32 noundef 0) #6
  br label %_ZN22CompilationResourceObjnwEm.exit

_ZN22CompilationResourceObjnwEm.exit:             ; preds = %25, %27
  %.0.i.i.i = phi ptr [ %21, %25 ], [ %28, %27 ]
  %29 = icmp eq ptr %.0.i.i.i, null
  br i1 %29, label %31, label %30

30:                                               ; preds = %_ZN22CompilationResourceObjnwEm.exit
  tail call void @_ZN12CodeEmitInfoC1EPS_P10ValueStack(ptr noundef nonnull align 8 dereferenceable(43) %.0.i.i.i, ptr noundef %1, ptr noundef null) #6
  br label %31

31:                                               ; preds = %30, %_ZN22CompilationResourceObjnwEm.exit
  %32 = getelementptr inbounds i8, ptr %0, i64 88
  store ptr %.0.i.i.i, ptr %32, align 8
  ret void
}